; ModuleID = 'source-C-CXX/44/393.c'
source_filename = "source-C-CXX/44/393.c"
target datalayout = "e-m:e-p270:32:32-p271:32:32-p272:64:64-i64:64-f80:128-n8:16:32:64-S128"
target triple = "x86_64-pc-linux-gnu"

@.str = private unnamed_addr constant [5 x i8] c"%s%s\00", align 1
@.str.1 = private unnamed_addr constant [4 x i8] c"%d\0A\00", align 1

; Function Attrs: nofree nounwind sspstrong uwtable
define dso_local void @main() local_unnamed_addr #0 {
  %1 = alloca [50 x i8], align 16
  %2 = alloca [50 x i8], align 16
  %3 = getelementptr inbounds [50 x i8], [50 x i8]* %1, i64 0, i64 0
  call void @llvm.lifetime.start.p0i8(i64 50, i8* nonnull %3) #4
  %4 = getelementptr inbounds [50 x i8], [50 x i8]* %2, i64 0, i64 0
  call void @llvm.lifetime.start.p0i8(i64 50, i8* nonnull %4) #4
  %5 = call i32 (i8*, ...) @__isoc99_scanf(i8* getelementptr inbounds ([5 x i8], [5 x i8]* @.str, i64 0, i64 0), i8* nonnull %3, i8* nonnull %4)
  %6 = call i64 @strlen(i8* noundef nonnull %4) #5
  %7 = icmp eq i64 %6, 0
  br i1 %7, label %33, label %8

8:                                                ; preds = %0, %30
  %9 = phi i64 [ %31, %30 ], [ 0, %0 ]
  %10 = load i8, i8* %3, align 16, !tbaa !5
  %11 = getelementptr inbounds [50 x i8], [50 x i8]* %2, i64 0, i64 %9
  %12 = load i8, i8* %11, align 1, !tbaa !5
  %13 = icmp ne i8 %10, %12
  %14 = icmp eq i8 %10, 0
  %15 = or i1 %13, %14
  br i1 %15, label %30, label %19

16:                                               ; preds = %19
  %17 = call i64 @strlen(i8* noundef nonnull %3) #5
  %18 = icmp ugt i64 %17, %26
  br i1 %18, label %19, label %27, !llvm.loop !8

19:                                               ; preds = %8, %16
  %20 = phi i64 [ %26, %16 ], [ 0, %8 ]
  %21 = add nuw nsw i64 %20, %9
  %22 = getelementptr inbounds [50 x i8], [50 x i8]* %2, i64 0, i64 %21
  %23 = load i8, i8* %22, align 1, !tbaa !5
  %24 = getelementptr inbounds [50 x i8], [50 x i8]* %1, i64 0, i64 %20
  store i8 %23, i8* %24, align 1, !tbaa !5
  %25 = icmp eq i8 %23, 0
  %26 = add nuw i64 %20, 1
  br i1 %25, label %30, label %16

27:                                               ; preds = %16
  %28 = trunc i64 %9 to i32
  %29 = call i32 (i8*, ...) @printf(i8* nonnull dereferenceable(1) getelementptr inbounds ([4 x i8], [4 x i8]* @.str.1, i64 0, i64 0), i32 %28)
  br label %33

30:                                               ; preds = %19, %8
  %31 = add nuw i64 %9, 1
  %32 = icmp eq i64 %31, %6
  br i1 %32, label %33, label %8, !llvm.loop !10

33:                                               ; preds = %30, %0, %27
  call void @llvm.lifetime.end.p0i8(i64 50, i8* nonnull %4) #4
  call void @llvm.lifetime.end.p0i8(i64 50, i8* nonnull %3) #4
  ret void
}

; Function Attrs: argmemonly mustprogress nofree nosync nounwind willreturn
declare void @llvm.lifetime.start.p0i8(i64 immarg, i8* nocapture) #1

; Function Attrs: nofree nounwind
declare noundef i32 @__isoc99_scanf(i8* nocapture noundef readonly, ...) local_unnamed_addr #2

; Function Attrs: argmemonly mustprogress nofree nounwind readonly willreturn
declare i64 @strlen(i8* nocapture) local_unnamed_addr #3

; Function Attrs: nofree nounwind
declare noundef i32 @printf(i8* nocapture noundef readonly, ...) local_unnamed_addr #2

; Function Attrs: argmemonly mustprogress nofree nosync nounwind willreturn
declare void @llvm.lifetime.end.p0i8(i64 immarg, i8* nocapture) #1


!llvm.module.flags = !{!0, !1, !2, !3}
!llvm.ident = !{!4}

!0 = !{i32 1, !"wchar_size", i32 4}
!1 = !{i32 7, !"PIC Level", i32 2}
!2 = !{i32 7, !"PIE Level", i32 2}
!3 = !{i32 7, !"uwtable", i32 1}
!4 = !{!"clang version 13.0.0"}
!5 = !{!6, !6, i64 0}
!6 = !{!"omnipotent char", !7, i64 0}
!7 = !{!"Simple C/C++ TBAA"}
!8 = distinct !{!8, !9}
!9 = !{!"llvm.loop.mustprogress"}
!10 = distinct !{!10, !9}
